target datalayout = "e-m:e-p270:32:32-p271:32:32-p272:64:64-i64:64-i128:128-f80:128-n8:16:32:64-S128"
target triple = "x86_64-pc-linux-gnu"

%"class.std::__exception_ptr::exception_ptr" = type { ptr }
%"class.std::runtime_error" = type { %"class.std::exception", %"struct.std::__cow_string" }
%"class.std::exception" = type { ptr }
%"struct.std::__cow_string" = type { %union.anon }
%union.anon = type { ptr }
%"class.faiss::FaissException" = type { %"class.std::exception", %"class.std::__cxx11::basic_string" }
%"class.std::__cxx11::basic_string" = type { %"struct.std::__cxx11::basic_string<char>::_Alloc_hider", i64, %union.anon.0 }
%"struct.std::__cxx11::basic_string<char>::_Alloc_hider" = type { ptr }
%union.anon.0 = type { i64, [8 x i8] }

@_ZTIN5faiss14FaissExceptionE = external constant ptr
@_ZTISt9exception = external constant ptr
@.str = private unnamed_addr constant [14 x i8] c"Unknown error\00", align 1
@faiss_last_exception = external thread_local global %"class.std::__exception_ptr::exception_ptr", align 8
@_ZTVSt9exception = available_externally unnamed_addr constant { [5 x ptr] } { [5 x ptr] [ptr null, ptr @_ZTISt9exception, ptr @_ZNSt9exceptionD1Ev, ptr @_ZNSt9exceptionD0Ev, ptr @_ZNKSt9exception4whatEv] }, align 8

; Function Attrs: inlinehint mustprogress nounwind uwtable
define linkonce_odr void @_ZNSt15__exception_ptr13exception_ptr4swapERS0_(ptr noundef nonnull align 8 dereferenceable(8) %0, ptr noundef nonnull align 8 dereferenceable(8) %1) #9 comdat align 2 {
  %3 = alloca ptr, align 8
  %4 = alloca ptr, align 8
  %5 = alloca ptr, align 8
  store ptr %0, ptr %3, align 8, !tbaa !29
  store ptr %1, ptr %4, align 8, !tbaa !29
  %6 = load ptr, ptr %3, align 8
  call void @llvm.lifetime.start.p0(i64 8, ptr %5) #3
  %7 = getelementptr inbounds nuw %"class.std::__exception_ptr::exception_ptr", ptr %6, i32 0, i32 0
  %8 = load ptr, ptr %7, align 8, !tbaa !31
  store ptr %8, ptr %5, align 8, !tbaa !28
  %9 = load ptr, ptr %4, align 8, !tbaa !29
  %10 = getelementptr inbounds nuw %"class.std::__exception_ptr::exception_ptr", ptr %9, i32 0, i32 0
  %11 = load ptr, ptr %10, align 8, !tbaa !31
  %12 = getelementptr inbounds nuw %"class.std::__exception_ptr::exception_ptr", ptr %6, i32 0, i32 0
  store ptr %11, ptr %12, align 8, !tbaa !31
  %13 = load ptr, ptr %5, align 8, !tbaa !28
  %14 = load ptr, ptr %4, align 8, !tbaa !29
  %15 = getelementptr inbounds nuw %"class.std::__exception_ptr::exception_ptr", ptr %14, i32 0, i32 0
  store ptr %13, ptr %15, align 8, !tbaa !31
  call void @llvm.lifetime.end.p0(i64 8, ptr %5) #3
  ret void
}

; Function Attrs: mustprogress nounwind uwtable
define linkonce_odr void @_ZNSt15__exception_ptr13exception_ptrC2EOS0_(ptr noundef nonnull align 8 dereferenceable(8) %0, ptr noundef nonnull align 8 dereferenceable(8) %1) unnamed_addr #4 comdat align 2 {
  %3 = alloca ptr, align 8
  %4 = alloca ptr, align 8
  store ptr %0, ptr %3, align 8, !tbaa !29
  store ptr %1, ptr %4, align 8, !tbaa !29
  %5 = load ptr, ptr %3, align 8
  %6 = getelementptr inbounds nuw %"class.std::__exception_ptr::exception_ptr", ptr %5, i32 0, i32 0
  %7 = load ptr, ptr %4, align 8, !tbaa !29
  %8 = getelementptr inbounds nuw %"class.std::__exception_ptr::exception_ptr", ptr %7, i32 0, i32 0
  %9 = load ptr, ptr %8, align 8, !tbaa !31
  store ptr %9, ptr %6, align 8, !tbaa !31
  %10 = load ptr, ptr %4, align 8, !tbaa !29
  %11 = getelementptr inbounds nuw %"class.std::__exception_ptr::exception_ptr", ptr %10, i32 0, i32 0
  store ptr null, ptr %11, align 8, !tbaa !31
  ret void
}

; Function Attrs: mustprogress nounwind uwtable
define linkonce_odr void @_ZNSt9exceptionC2ERKS_(ptr noundef nonnull align 8 dereferenceable(8) %0, ptr noundef nonnull align 8 dereferenceable(8) %1) unnamed_addr #4 comdat align 2 {
  %3 = alloca ptr, align 8
  %4 = alloca ptr, align 8
  store ptr %0, ptr %3, align 8, !tbaa !24
  store ptr %1, ptr %4, align 8, !tbaa !24
  %5 = load ptr, ptr %3, align 8
  store ptr getelementptr inbounds inrange(-16, 24) ({ [5 x ptr] }, ptr @_ZTVSt9exception, i32 0, i32 0, i32 2), ptr %5, align 8, !tbaa !8
  ret void
}

; Function Attrs: inlinehint mustprogress nounwind uwtable
define linkonce_odr void @_ZNSt15__exception_ptr13exception_ptrD2Ev(ptr noundef nonnull align 8 dereferenceable(8) %0) unnamed_addr #9 comdat align 2 {
  %2 = alloca ptr, align 8
  store ptr %0, ptr %2, align 8, !tbaa !29
  %3 = load ptr, ptr %2, align 8
  %4 = getelementptr inbounds nuw %"class.std::__exception_ptr::exception_ptr", ptr %3, i32 0, i32 0
  %5 = load ptr, ptr %4, align 8, !tbaa !31
  %6 = icmp ne ptr %5, null
  br i1 %6, label %7, label %8

7:                                                ; preds = %1
  call void @_ZNSt15__exception_ptr13exception_ptr10_M_releaseEv(ptr noundef nonnull align 8 dereferenceable(8) %3) #3
  br label %8

8:                                                ; preds = %7, %1
  ret void
}

; Function Attrs: mustprogress nounwind uwtable
define linkonce_odr noundef nonnull align 8 dereferenceable(8) ptr @_ZNSt15__exception_ptr13exception_ptraSEOS0_(ptr noundef nonnull align 8 dereferenceable(8) %0, ptr noundef nonnull align 8 dereferenceable(8) %1) #4 comdat align 2 {
  %3 = alloca ptr, align 8
  %4 = alloca ptr, align 8
  %5 = alloca %"class.std::__exception_ptr::exception_ptr", align 8
  store ptr %0, ptr %3, align 8, !tbaa !29
  store ptr %1, ptr %4, align 8, !tbaa !29
  %6 = load ptr, ptr %3, align 8
  call void @llvm.lifetime.start.p0(i64 8, ptr %5) #3
  %7 = load ptr, ptr %4, align 8, !tbaa !29
  call void @_ZNSt15__exception_ptr13exception_ptrC2EOS0_(ptr noundef nonnull align 8 dereferenceable(8) %5, ptr noundef nonnull align 8 dereferenceable(8) %7) #3
  call void @_ZNSt15__exception_ptr13exception_ptr4swapERS0_(ptr noundef nonnull align 8 dereferenceable(8) %5, ptr noundef nonnull align 8 dereferenceable(8) %6) #3
  call void @_ZNSt15__exception_ptr13exception_ptrD2Ev(ptr noundef nonnull align 8 dereferenceable(8) %5) #3
  call void @llvm.lifetime.end.p0(i64 8, ptr %5) #3
  ret ptr %6
}

; Function Attrs: uwtable
define linkonce_odr hidden noundef ptr @_ZTW20faiss_last_exception() #8 comdat {
  %1 = icmp ne ptr @_ZTH20faiss_last_exception, null
  br i1 %1, label %2, label %3

2:                                                ; preds = %0
  call void @_ZTH20faiss_last_exception()
  br label %3

3:                                                ; preds = %2, %0
  %4 = call align 8 ptr @llvm.threadlocal.address.p0(ptr align 8 @faiss_last_exception)
  ret ptr %4
}

; Function Attrs: mustprogress uwtable
define i32 @faiss_ITQTransform_new_with(ptr noundef %0, i32 noundef %1, i32 noundef %2, i32 noundef %3) #5 personality ptr @__gxx_personality_v0 {
  %5 = alloca i32, align 4
  %6 = alloca ptr, align 8
  %7 = alloca i32, align 4
  %8 = alloca i32, align 4
  %9 = alloca i32, align 4
  %10 = alloca i8, align 1
  %11 = alloca ptr, align 8
  %12 = alloca i32, align 4
  %13 = alloca %"class.std::__exception_ptr::exception_ptr", align 8
  %14 = alloca %"class.std::runtime_error", align 8
  %15 = alloca ptr, align 8
  %16 = alloca %"class.std::__exception_ptr::exception_ptr", align 8
  %17 = alloca %"class.std::exception", align 8
  %18 = alloca ptr, align 8
  %19 = alloca %"class.std::__exception_ptr::exception_ptr", align 8
  %20 = alloca %"class.faiss::FaissException", align 8
  store ptr %0, ptr %6, align 8, !tbaa !40
  store i32 %1, ptr %7, align 4, !tbaa !42
  store i32 %2, ptr %8, align 4, !tbaa !42
  store i32 %3, ptr %9, align 4, !tbaa !42
  call void @llvm.lifetime.start.p0(i64 1, ptr %10) #3
  %21 = load i32, ptr %9, align 4, !tbaa !42
  %22 = icmp ne i32 %21, 0
  %23 = zext i1 %22 to i8
  store i8 %23, ptr %10, align 1, !tbaa !47
  %24 = invoke noalias noundef nonnull ptr @_Znwm(i64 noundef 256) #18
          to label %25 unwind label %32

25:                                               ; preds = %4
  %26 = load i32, ptr %7, align 4, !tbaa !42
  %27 = load i32, ptr %8, align 4, !tbaa !42
  %28 = load i8, ptr %10, align 1, !tbaa !47, !range !14, !noundef !15
  %29 = trunc i8 %28 to i1
  invoke void @_ZN5faiss12ITQTransformC1Eiib(ptr noundef nonnull align 8 dereferenceable(256) %24, i32 noundef %26, i32 noundef %27, i1 noundef zeroext %29)
          to label %30 unwind label %36

30:                                               ; preds = %25
  %31 = load ptr, ptr %6, align 8, !tbaa !40
  store ptr %24, ptr %31, align 8, !tbaa !3
  call void @llvm.lifetime.end.p0(i64 1, ptr %10) #3
  br label %77

32:                                               ; preds = %4
  %33 = landingpad { ptr, i32 }
          catch ptr @_ZTIN5faiss14FaissExceptionE
          catch ptr @_ZTISt9exception
          catch ptr null
  %34 = extractvalue { ptr, i32 } %33, 0
  store ptr %34, ptr %11, align 8
  %35 = extractvalue { ptr, i32 } %33, 1
  store i32 %35, ptr %12, align 4
  br label %40

36:                                               ; preds = %25
  %37 = landingpad { ptr, i32 }
          catch ptr @_ZTIN5faiss14FaissExceptionE
          catch ptr @_ZTISt9exception
          catch ptr null
  %38 = extractvalue { ptr, i32 } %37, 0
  store ptr %38, ptr %11, align 8
  %39 = extractvalue { ptr, i32 } %37, 1
  store i32 %39, ptr %12, align 4
  call void @_ZdlPvm(ptr noundef %24, i64 noundef 256) #19
  br label %40

40:                                               ; preds = %36, %32
  call void @llvm.lifetime.end.p0(i64 1, ptr %10) #3
  br label %41

41:                                               ; preds = %40
  %42 = load i32, ptr %12, align 4
  %43 = call i32 @llvm.eh.typeid.for.p0(ptr @_ZTIN5faiss14FaissExceptionE) #3
  %44 = icmp eq i32 %42, %43
  br i1 %44, label %45, label %52

45:                                               ; preds = %41
  call void @llvm.lifetime.start.p0(i64 8, ptr %18) #3
  %46 = load ptr, ptr %11, align 8
  %47 = call ptr @__cxa_begin_catch(ptr %46) #3
  store ptr %47, ptr %18, align 8
  call void @llvm.lifetime.start.p0(i64 8, ptr %19) #3
  %48 = load ptr, ptr %18, align 8, !tbaa !22
  invoke void @_ZN5faiss14FaissExceptionC2ERKS0_(ptr noundef nonnull align 8 dereferenceable(40) %20, ptr noundef nonnull align 8 dereferenceable(40) %48)
          to label %49 unwind label %72

49:                                               ; preds = %45
  call void @_ZSt18make_exception_ptrIN5faiss14FaissExceptionEENSt15__exception_ptr13exception_ptrET_(ptr dead_on_unwind writable sret(%"class.std::__exception_ptr::exception_ptr") align 8 %19, ptr noundef %20) #3
  %50 = call ptr @_ZTW20faiss_last_exception()
  %51 = call noundef nonnull align 8 dereferenceable(8) ptr @_ZNSt15__exception_ptr13exception_ptraSEOS0_(ptr noundef nonnull align 8 dereferenceable(8) %50, ptr noundef nonnull align 8 dereferenceable(8) %19) #3
  call void @_ZNSt15__exception_ptr13exception_ptrD2Ev(ptr noundef nonnull align 8 dereferenceable(8) %19) #3
  call void @_ZN5faiss14FaissExceptionD2Ev(ptr noundef nonnull align 8 dereferenceable(40) %20) #3
  call void @llvm.lifetime.end.p0(i64 8, ptr %19) #3
  store i32 -2, ptr %5, align 4
  call void @__cxa_end_catch()
  call void @llvm.lifetime.end.p0(i64 8, ptr %18) #3
  br label %78

52:                                               ; preds = %41
  %53 = call i32 @llvm.eh.typeid.for.p0(ptr @_ZTISt9exception) #3
  %54 = icmp eq i32 %42, %53
  br i1 %54, label %55, label %61

55:                                               ; preds = %52
  call void @llvm.lifetime.start.p0(i64 8, ptr %15) #3
  %56 = load ptr, ptr %11, align 8
  %57 = call ptr @__cxa_begin_catch(ptr %56) #3
  store ptr %57, ptr %15, align 8
  call void @llvm.lifetime.start.p0(i64 8, ptr %16) #3
  %58 = load ptr, ptr %15, align 8, !tbaa !24
  call void @_ZNSt9exceptionC2ERKS_(ptr noundef nonnull align 8 dereferenceable(8) %17, ptr noundef nonnull align 8 dereferenceable(8) %58) #3
  call void @_ZSt18make_exception_ptrISt9exceptionENSt15__exception_ptr13exception_ptrET_(ptr dead_on_unwind writable sret(%"class.std::__exception_ptr::exception_ptr") align 8 %16, ptr noundef %17) #3
  %59 = call ptr @_ZTW20faiss_last_exception()
  %60 = call noundef nonnull align 8 dereferenceable(8) ptr @_ZNSt15__exception_ptr13exception_ptraSEOS0_(ptr noundef nonnull align 8 dereferenceable(8) %59, ptr noundef nonnull align 8 dereferenceable(8) %16) #3
  call void @_ZNSt15__exception_ptr13exception_ptrD2Ev(ptr noundef nonnull align 8 dereferenceable(8) %16) #3
  call void @_ZNSt9exceptionD1Ev(ptr noundef nonnull align 8 dereferenceable(8) %17) #3
  call void @llvm.lifetime.end.p0(i64 8, ptr %16) #3
  store i32 -4, ptr %5, align 4
  call void @__cxa_end_catch()
  call void @llvm.lifetime.end.p0(i64 8, ptr %15) #3
  br label %78

61:                                               ; preds = %52
  %62 = load ptr, ptr %11, align 8
  %63 = call ptr @__cxa_begin_catch(ptr %62) #3
  call void @llvm.lifetime.start.p0(i64 8, ptr %13) #3
  invoke void @_ZNSt13runtime_errorC1EPKc(ptr noundef nonnull align 8 dereferenceable(16) %14, ptr noundef @.str)
          to label %64 unwind label %67

64:                                               ; preds = %61
  call void @_ZSt18make_exception_ptrISt13runtime_errorENSt15__exception_ptr13exception_ptrET_(ptr dead_on_unwind writable sret(%"class.std::__exception_ptr::exception_ptr") align 8 %13, ptr noundef %14) #3
  %65 = call ptr @_ZTW20faiss_last_exception()
  %66 = call noundef nonnull align 8 dereferenceable(8) ptr @_ZNSt15__exception_ptr13exception_ptraSEOS0_(ptr noundef nonnull align 8 dereferenceable(8) %65, ptr noundef nonnull align 8 dereferenceable(8) %13) #3
  call void @_ZNSt15__exception_ptr13exception_ptrD2Ev(ptr noundef nonnull align 8 dereferenceable(8) %13) #3
  call void @_ZNSt13runtime_errorD1Ev(ptr noundef nonnull align 8 dereferenceable(16) %14) #3
  call void @llvm.lifetime.end.p0(i64 8, ptr %13) #3
  store i32 -1, ptr %5, align 4
  call void @__cxa_end_catch()
  br label %78

67:                                               ; preds = %61
  %68 = landingpad { ptr, i32 }
          cleanup
  %69 = extractvalue { ptr, i32 } %68, 0
  store ptr %69, ptr %11, align 8
  %70 = extractvalue { ptr, i32 } %68, 1
  store i32 %70, ptr %12, align 4
  call void @llvm.lifetime.end.p0(i64 8, ptr %13) #3
  invoke void @__cxa_end_catch()
          to label %71 unwind label %85

71:                                               ; preds = %67
  br label %80

72:                                               ; preds = %45
  %73 = landingpad { ptr, i32 }
          cleanup
  %74 = extractvalue { ptr, i32 } %73, 0
  store ptr %74, ptr %11, align 8
  %75 = extractvalue { ptr, i32 } %73, 1
  store i32 %75, ptr %12, align 4
  call void @llvm.lifetime.end.p0(i64 8, ptr %19) #3
  invoke void @__cxa_end_catch()
          to label %76 unwind label %85

76:                                               ; preds = %72
  call void @llvm.lifetime.end.p0(i64 8, ptr %18) #3
  br label %80

77:                                               ; preds = %30
  store i32 0, ptr %5, align 4
  br label %78

78:                                               ; preds = %77, %49, %55, %64
  %79 = load i32, ptr %5, align 4
  ret i32 %79

80:                                               ; preds = %76, %71
  %81 = load ptr, ptr %11, align 8
  %82 = load i32, ptr %12, align 4
  %83 = insertvalue { ptr, i32 } poison, ptr %81, 0
  %84 = insertvalue { ptr, i32 } %83, i32 %82, 1
  resume { ptr, i32 } %84

85:                                               ; preds = %72, %67
  %86 = landingpad { ptr, i32 }
          catch ptr null
  %87 = extractvalue { ptr, i32 } %86, 0
  call void @__clang_call_terminate(ptr %87) #17
  unreachable
}