; Function Attrs: uwtable
define range(i32 -4, 1) i32 @faiss_ITQTransform_new_with(ptr noundef writeonly captures(none) %0, i32 noundef %1, i32 noundef %2, i32 noundef %3) local_unnamed_addr #5 personality ptr @__gxx_personality_v0 {
  %5 = alloca %"class.std::__exception_ptr::exception_ptr", align 8
  %6 = alloca %"class.std::__exception_ptr::exception_ptr", align 8
  %7 = alloca %"class.std::__exception_ptr::exception_ptr", align 8
  %8 = alloca %"class.std::__exception_ptr::exception_ptr", align 8
  %9 = alloca %"class.std::runtime_error", align 8
  %10 = alloca %"class.std::__exception_ptr::exception_ptr", align 8
  %11 = alloca %"class.std::exception", align 8
  %12 = alloca %"class.std::__exception_ptr::exception_ptr", align 8
  %13 = alloca %"class.faiss::FaissException", align 8
  %14 = invoke noalias noundef nonnull dereferenceable(256) ptr @_Znwm(i64 noundef 256) #23
          to label %15 unwind label %18

15:                                               ; preds = %4
  %16 = icmp ne i32 %3, 0
  invoke void @_ZN5faiss12ITQTransformC1Eiib(ptr noundef nonnull align 8 dereferenceable(256) %14, i32 noundef %1, i32 noundef %2, i1 noundef zeroext %16)
          to label %17 unwind label %20

17:                                               ; preds = %15
  store ptr %14, ptr %0, align 8, !tbaa !35
  br label %54

18:                                               ; preds = %4
  %19 = landingpad { ptr, i32 }
          catch ptr @_ZTIN5faiss14FaissExceptionE
          catch ptr @_ZTISt9exception
          catch ptr null
  br label %22

20:                                               ; preds = %15
  %21 = landingpad { ptr, i32 }
          catch ptr @_ZTIN5faiss14FaissExceptionE
          catch ptr @_ZTISt9exception
          catch ptr null
  tail call void @_ZdlPvm(ptr noundef nonnull %14, i64 noundef 256) #22
  br label %22

22:                                               ; preds = %20, %18
  %.pn = phi { ptr, i32 } [ %21, %20 ], [ %19, %18 ]
  %.013 = extractvalue { ptr, i32 } %.pn, 0
  %.014 = extractvalue { ptr, i32 } %.pn, 1
  %23 = tail call i32 @llvm.eh.typeid.for.p0(ptr nonnull @_ZTIN5faiss14FaissExceptionE) #20
  %24 = icmp eq i32 %.014, %23
  br i1 %24, label %25, label %33

25:                                               ; preds = %22
  %26 = tail call ptr @__cxa_begin_catch(ptr %.013) #20
  call void @llvm.lifetime.start.p0(i64 8, ptr nonnull %12) #20
  invoke void @_ZN5faiss14FaissExceptionC2ERKS0_(ptr noundef nonnull align 8 dereferenceable(40) %13, ptr noundef nonnull align 8 dereferenceable(40) %26)
          to label %27 unwind label %52

27:                                               ; preds = %25
  call void @_ZSt18make_exception_ptrIN5faiss14FaissExceptionEENSt15__exception_ptr13exception_ptrET_(ptr dead_on_unwind nonnull writable sret(%"class.std::__exception_ptr::exception_ptr") align 8 %12, ptr noundef nonnull %13) #20
  %.not.i = icmp eq ptr @_ZTH20faiss_last_exception, null
  br i1 %.not.i, label %_ZTW20faiss_last_exception.exit, label %28

28:                                               ; preds = %27
  call void @_ZTH20faiss_last_exception()
  br label %_ZTW20faiss_last_exception.exit

_ZTW20faiss_last_exception.exit:                  ; preds = %27, %28
  %29 = call noundef align 8 ptr @llvm.threadlocal.address.p0(ptr align 8 @faiss_last_exception)
  call void @llvm.lifetime.start.p0(i64 8, ptr nonnull %7) #20
  %30 = load ptr, ptr %12, align 8, !tbaa !15
  store ptr null, ptr %12, align 8, !tbaa !15
  %31 = load ptr, ptr %29, align 8, !tbaa !15
  store ptr %31, ptr %7, align 8, !tbaa !15
  store ptr %30, ptr %29, align 8, !tbaa !15
  %.not.i.i = icmp eq ptr %31, null
  br i1 %.not.i.i, label %_ZNSt15__exception_ptr13exception_ptraSEOS0_.exit.thread, label %_ZNSt15__exception_ptr13exception_ptraSEOS0_.exit

_ZNSt15__exception_ptr13exception_ptraSEOS0_.exit.thread: ; preds = %_ZTW20faiss_last_exception.exit
  call void @llvm.lifetime.end.p0(i64 8, ptr nonnull %7) #20
  br label %_ZNSt15__exception_ptr13exception_ptrD2Ev.exit

_ZNSt15__exception_ptr13exception_ptraSEOS0_.exit: ; preds = %_ZTW20faiss_last_exception.exit
  call void @_ZNSt15__exception_ptr13exception_ptr10_M_releaseEv(ptr noundef nonnull align 8 dereferenceable(8) %7) #20
  %.pr = load ptr, ptr %12, align 8, !tbaa !15
  call void @llvm.lifetime.end.p0(i64 8, ptr nonnull %7) #20
  %.not.i19 = icmp eq ptr %.pr, null
  br i1 %.not.i19, label %_ZNSt15__exception_ptr13exception_ptrD2Ev.exit, label %32

32:                                               ; preds = %_ZNSt15__exception_ptr13exception_ptraSEOS0_.exit
  call void @_ZNSt15__exception_ptr13exception_ptr10_M_releaseEv(ptr noundef nonnull align 8 dereferenceable(8) %12) #20
  br label %_ZNSt15__exception_ptr13exception_ptrD2Ev.exit

_ZNSt15__exception_ptr13exception_ptrD2Ev.exit:   ; preds = %_ZNSt15__exception_ptr13exception_ptraSEOS0_.exit.thread, %_ZNSt15__exception_ptr13exception_ptraSEOS0_.exit, %32
  call void @_ZN5faiss14FaissExceptionD2Ev(ptr noundef nonnull align 8 dereferenceable(40) %13) #20
  call void @llvm.lifetime.end.p0(i64 8, ptr nonnull %12) #20
  call void @__cxa_end_catch()
  br label %54

33:                                               ; preds = %22
  %34 = tail call i32 @llvm.eh.typeid.for.p0(ptr nonnull @_ZTISt9exception) #20
  %35 = icmp eq i32 %.014, %34
  %36 = tail call ptr @__cxa_begin_catch(ptr %.013) #20
  br i1 %35, label %37, label %43

37:                                               ; preds = %33
  call void @llvm.lifetime.start.p0(i64 8, ptr nonnull %10) #20
  store ptr getelementptr inbounds nuw inrange(-16, 24) (i8, ptr @_ZTVSt9exception, i64 16), ptr %11, align 8, !tbaa !3
  call void @_ZSt18make_exception_ptrISt9exceptionENSt15__exception_ptr13exception_ptrET_(ptr dead_on_unwind nonnull writable sret(%"class.std::__exception_ptr::exception_ptr") align 8 %10, ptr noundef nonnull %11) #20
  %.not.i20 = icmp eq ptr @_ZTH20faiss_last_exception, null
  br i1 %.not.i20, label %_ZTW20faiss_last_exception.exit21, label %38

38:                                               ; preds = %37
  call void @_ZTH20faiss_last_exception()
  br label %_ZTW20faiss_last_exception.exit21

_ZTW20faiss_last_exception.exit21:                ; preds = %37, %38
  %39 = call noundef align 8 ptr @llvm.threadlocal.address.p0(ptr align 8 @faiss_last_exception)
  call void @llvm.lifetime.start.p0(i64 8, ptr nonnull %6) #20
  %40 = load ptr, ptr %10, align 8, !tbaa !15
  store ptr null, ptr %10, align 8, !tbaa !15
  %41 = load ptr, ptr %39, align 8, !tbaa !15
  store ptr %41, ptr %6, align 8, !tbaa !15
  store ptr %40, ptr %39, align 8, !tbaa !15
  %.not.i.i22 = icmp eq ptr %41, null
  br i1 %.not.i.i22, label %_ZNSt15__exception_ptr13exception_ptraSEOS0_.exit23.thread, label %_ZNSt15__exception_ptr13exception_ptraSEOS0_.exit23

_ZNSt15__exception_ptr13exception_ptraSEOS0_.exit23.thread: ; preds = %_ZTW20faiss_last_exception.exit21
  call void @llvm.lifetime.end.p0(i64 8, ptr nonnull %6) #20
  br label %_ZNSt15__exception_ptr13exception_ptrD2Ev.exit25

_ZNSt15__exception_ptr13exception_ptraSEOS0_.exit23: ; preds = %_ZTW20faiss_last_exception.exit21
  call void @_ZNSt15__exception_ptr13exception_ptr10_M_releaseEv(ptr noundef nonnull align 8 dereferenceable(8) %6) #20
  %.pr33 = load ptr, ptr %10, align 8, !tbaa !15
  call void @llvm.lifetime.end.p0(i64 8, ptr nonnull %6) #20
  %.not.i24 = icmp eq ptr %.pr33, null
  br i1 %.not.i24, label %_ZNSt15__exception_ptr13exception_ptrD2Ev.exit25, label %42

42:                                               ; preds = %_ZNSt15__exception_ptr13exception_ptraSEOS0_.exit23
  call void @_ZNSt15__exception_ptr13exception_ptr10_M_releaseEv(ptr noundef nonnull align 8 dereferenceable(8) %10) #20
  br label %_ZNSt15__exception_ptr13exception_ptrD2Ev.exit25

_ZNSt15__exception_ptr13exception_ptrD2Ev.exit25: ; preds = %_ZNSt15__exception_ptr13exception_ptraSEOS0_.exit23.thread, %_ZNSt15__exception_ptr13exception_ptraSEOS0_.exit23, %42
  call void @_ZNSt9exceptionD1Ev(ptr noundef nonnull align 8 dereferenceable(8) %11) #20
  call void @llvm.lifetime.end.p0(i64 8, ptr nonnull %10) #20
  call void @__cxa_end_catch()
  br label %54

43:                                               ; preds = %33
  call void @llvm.lifetime.start.p0(i64 8, ptr nonnull %8) #20
  invoke void @_ZNSt13runtime_errorC1EPKc(ptr noundef nonnull align 8 dereferenceable(16) %9, ptr noundef nonnull @.str)
          to label %44 unwind label %50

44:                                               ; preds = %43
  call void @_ZSt18make_exception_ptrISt13runtime_errorENSt15__exception_ptr13exception_ptrET_(ptr dead_on_unwind nonnull writable sret(%"class.std::__exception_ptr::exception_ptr") align 8 %8, ptr noundef nonnull %9) #20
  %.not.i26 = icmp eq ptr @_ZTH20faiss_last_exception, null
  br i1 %.not.i26, label %_ZTW20faiss_last_exception.exit27, label %45

45:                                               ; preds = %44
  call void @_ZTH20faiss_last_exception()
  br label %_ZTW20faiss_last_exception.exit27

_ZTW20faiss_last_exception.exit27:                ; preds = %44, %45
  %46 = call noundef align 8 ptr @llvm.threadlocal.address.p0(ptr align 8 @faiss_last_exception)
  call void @llvm.lifetime.start.p0(i64 8, ptr nonnull %5) #20
  %47 = load ptr, ptr %8, align 8, !tbaa !15
  store ptr null, ptr %8, align 8, !tbaa !15
  %48 = load ptr, ptr %46, align 8, !tbaa !15
  store ptr %48, ptr %5, align 8, !tbaa !15
  store ptr %47, ptr %46, align 8, !tbaa !15
  %.not.i.i28 = icmp eq ptr %48, null
  br i1 %.not.i.i28, label %_ZNSt15__exception_ptr13exception_ptraSEOS0_.exit29.thread, label %_ZNSt15__exception_ptr13exception_ptraSEOS0_.exit29

_ZNSt15__exception_ptr13exception_ptraSEOS0_.exit29.thread: ; preds = %_ZTW20faiss_last_exception.exit27
  call void @llvm.lifetime.end.p0(i64 8, ptr nonnull %5) #20
  br label %_ZNSt15__exception_ptr13exception_ptrD2Ev.exit31

_ZNSt15__exception_ptr13exception_ptraSEOS0_.exit29: ; preds = %_ZTW20faiss_last_exception.exit27
  call void @_ZNSt15__exception_ptr13exception_ptr10_M_releaseEv(ptr noundef nonnull align 8 dereferenceable(8) %5) #20
  %.pr35 = load ptr, ptr %8, align 8, !tbaa !15
  call void @llvm.lifetime.end.p0(i64 8, ptr nonnull %5) #20
  %.not.i30 = icmp eq ptr %.pr35, null
  br i1 %.not.i30, label %_ZNSt15__exception_ptr13exception_ptrD2Ev.exit31, label %49

49:                                               ; preds = %_ZNSt15__exception_ptr13exception_ptraSEOS0_.exit29
  call void @_ZNSt15__exception_ptr13exception_ptr10_M_releaseEv(ptr noundef nonnull align 8 dereferenceable(8) %8) #20
  br label %_ZNSt15__exception_ptr13exception_ptrD2Ev.exit31

_ZNSt15__exception_ptr13exception_ptrD2Ev.exit31: ; preds = %_ZNSt15__exception_ptr13exception_ptraSEOS0_.exit29.thread, %_ZNSt15__exception_ptr13exception_ptraSEOS0_.exit29, %49
  call void @_ZNSt13runtime_errorD1Ev(ptr noundef nonnull align 8 dereferenceable(16) %9) #20
  call void @llvm.lifetime.end.p0(i64 8, ptr nonnull %8) #20
  call void @__cxa_end_catch()
  br label %54

50:                                               ; preds = %43
  %51 = landingpad { ptr, i32 }
          cleanup
  call void @llvm.lifetime.end.p0(i64 8, ptr nonnull %8) #20
  invoke void @__cxa_end_catch()
          to label %55 unwind label %56

52:                                               ; preds = %25
  %53 = landingpad { ptr, i32 }
          cleanup
  call void @llvm.lifetime.end.p0(i64 8, ptr nonnull %12) #20
  invoke void @__cxa_end_catch()
          to label %55 unwind label %56

54:                                               ; preds = %17, %_ZNSt15__exception_ptr13exception_ptrD2Ev.exit31, %_ZNSt15__exception_ptr13exception_ptrD2Ev.exit25, %_ZNSt15__exception_ptr13exception_ptrD2Ev.exit
  %.0 = phi i32 [ 0, %17 ], [ -2, %_ZNSt15__exception_ptr13exception_ptrD2Ev.exit ], [ -4, %_ZNSt15__exception_ptr13exception_ptrD2Ev.exit25 ], [ -1, %_ZNSt15__exception_ptr13exception_ptrD2Ev.exit31 ]
  ret i32 %.0

55:                                               ; preds = %52, %50
  %.pn17 = phi { ptr, i32 } [ %51, %50 ], [ %53, %52 ]
  resume { ptr, i32 } %.pn17

56:                                               ; preds = %52, %50
  %57 = landingpad { ptr, i32 }
          catch ptr null
  %58 = extractvalue { ptr, i32 } %57, 0
  call void @__clang_call_terminate(ptr %58) #21
  unreachable
}